target datalayout = "e-m:e-p270:32:32-p271:32:32-p272:64:64-i64:64-i128:128-f80:128-n8:16:32:64-S128"
target triple = "x86_64-pc-linux-gnu"

%struct.t_mat = type { i32, i32, ptr, i8, float, float, float, ptr, ptr }

@.str.1 = private unnamed_addr constant [121 x i8] c"generated/home/dtcxzyw/WorkSpace/Projects/compilers/llvm-opt-benchmark/bench/gromacs/gromacs/src/gromacs/gmxana/cmat.cpp\00", align 1
@.str.5 = private unnamed_addr constant [12 x i8] c"(*m)->m_ind\00", align 1
@.str.6 = private unnamed_addr constant [11 x i8] c"(*m)->erow\00", align 1
@.str.7 = private unnamed_addr constant [3 x i8] c"*m\00", align 1

; Function Attrs: mustprogress uwtable
define internal void @_ZL14gmx_sfree_implI5t_matEvPKcS2_iPT_(ptr noundef %0, ptr noundef %1, i32 noundef %2, ptr noundef %3) #0 {
  %5 = alloca ptr, align 8
  %6 = alloca ptr, align 8
  %7 = alloca i32, align 4
  %8 = alloca ptr, align 8
  store ptr %0, ptr %5, align 8
  store ptr %1, ptr %6, align 8
  store i32 %2, ptr %7, align 4
  store ptr %3, ptr %8, align 8
  %9 = load ptr, ptr %5, align 8
  %10 = load ptr, ptr %6, align 8
  %11 = load i32, ptr %7, align 4
  %12 = load ptr, ptr %8, align 8
  call void @_Z9save_freePKcS0_iPv(ptr noundef %9, ptr noundef %10, i32 noundef %11, ptr noundef %12)
  ret void
}

; Function Attrs: mustprogress uwtable
define internal void @_ZL14gmx_sfree_implIfEvPKcS1_iPT_(ptr noundef %0, ptr noundef %1, i32 noundef %2, ptr noundef %3) #0 {
  %5 = alloca ptr, align 8
  %6 = alloca ptr, align 8
  %7 = alloca i32, align 4
  %8 = alloca ptr, align 8
  store ptr %0, ptr %5, align 8
  store ptr %1, ptr %6, align 8
  store i32 %2, ptr %7, align 4
  store ptr %3, ptr %8, align 8
  %9 = load ptr, ptr %5, align 8
  %10 = load ptr, ptr %6, align 8
  %11 = load i32, ptr %7, align 4
  %12 = load ptr, ptr %8, align 8
  call void @_Z9save_freePKcS0_iPv(ptr noundef %9, ptr noundef %10, i32 noundef %11, ptr noundef %12)
  ret void
}

; Function Attrs: mustprogress uwtable
define internal void @_ZL14gmx_sfree_implIiEvPKcS1_iPT_(ptr noundef %0, ptr noundef %1, i32 noundef %2, ptr noundef %3) #0 {
  %5 = alloca ptr, align 8
  %6 = alloca ptr, align 8
  %7 = alloca i32, align 4
  %8 = alloca ptr, align 8
  store ptr %0, ptr %5, align 8
  store ptr %1, ptr %6, align 8
  store i32 %2, ptr %7, align 4
  store ptr %3, ptr %8, align 8
  %9 = load ptr, ptr %5, align 8
  %10 = load ptr, ptr %6, align 8
  %11 = load i32, ptr %7, align 4
  %12 = load ptr, ptr %8, align 8
  call void @_Z9save_freePKcS0_iPv(ptr noundef %9, ptr noundef %10, i32 noundef %11, ptr noundef %12)
  ret void
}

; Function Attrs: mustprogress uwtable
define void @_Z8done_matPP5t_mat(ptr noundef %0) #0 {
  %2 = alloca ptr, align 8
  store ptr %0, ptr %2, align 8
  %3 = load ptr, ptr %2, align 8
  %4 = load ptr, ptr %3, align 8
  %5 = getelementptr inbounds %struct.t_mat, ptr %4, i32 0, i32 0
  %6 = load i32, ptr %5, align 8
  %7 = load ptr, ptr %2, align 8
  %8 = load ptr, ptr %7, align 8
  %9 = getelementptr inbounds %struct.t_mat, ptr %8, i32 0, i32 8
  call void @_Z11done_matrixiPPPf(i32 noundef %6, ptr noundef %9)
  %10 = load ptr, ptr %2, align 8
  %11 = load ptr, ptr %10, align 8
  %12 = getelementptr inbounds %struct.t_mat, ptr %11, i32 0, i32 2
  %13 = load ptr, ptr %12, align 8
  call void @_ZL14gmx_sfree_implIiEvPKcS1_iPT_(ptr noundef @.str.5, ptr noundef @.str.1, i32 noundef 114, ptr noundef %13)
  %14 = load ptr, ptr %2, align 8
  %15 = load ptr, ptr %14, align 8
  %16 = getelementptr inbounds %struct.t_mat, ptr %15, i32 0, i32 7
  %17 = load ptr, ptr %16, align 8
  call void @_ZL14gmx_sfree_implIfEvPKcS1_iPT_(ptr noundef @.str.6, ptr noundef @.str.1, i32 noundef 115, ptr noundef %17)
  %18 = load ptr, ptr %2, align 8
  %19 = load ptr, ptr %18, align 8
  call void @_ZL14gmx_sfree_implI5t_matEvPKcS2_iPT_(ptr noundef @.str.7, ptr noundef @.str.1, i32 noundef 116, ptr noundef %19)
  %20 = load ptr, ptr %2, align 8
  store ptr null, ptr %20, align 8
  ret void
}