; Function Attrs: mustprogress uwtable
define void @_Z8done_matPP5t_mat(ptr nocapture noundef %0) local_unnamed_addr #0 {
  %2 = load ptr, ptr %0, align 8
  %3 = load i32, ptr %2, align 8
  %4 = getelementptr inbounds i8, ptr %2, i64 40
  tail call void @_Z11done_matrixiPPPf(i32 noundef %3, ptr noundef nonnull %4)
  %5 = load ptr, ptr %0, align 8
  %6 = getelementptr inbounds i8, ptr %5, i64 8
  %7 = load ptr, ptr %6, align 8
  tail call void @_Z9save_freePKcS0_iPv(ptr noundef nonnull @.str.5, ptr noundef nonnull @.str.1, i32 noundef 114, ptr noundef %7)
  %8 = load ptr, ptr %0, align 8
  %9 = getelementptr inbounds i8, ptr %8, i64 32
  %10 = load ptr, ptr %9, align 8
  tail call void @_Z9save_freePKcS0_iPv(ptr noundef nonnull @.str.6, ptr noundef nonnull @.str.1, i32 noundef 115, ptr noundef %10)
  %11 = load ptr, ptr %0, align 8
  tail call void @_Z9save_freePKcS0_iPv(ptr noundef nonnull @.str.7, ptr noundef nonnull @.str.1, i32 noundef 116, ptr noundef %11)
  store ptr null, ptr %0, align 8
  ret void
}